target datalayout = "e-m:e-p270:32:32-p271:32:32-p272:64:64-i64:64-i128:128-f80:128-n8:16:32:64-S128"
target triple = "x86_64-pc-linux-gnu"

%"class.mitsuba::DummyStream" = type <{ %"class.mitsuba::Stream", i64, i64, i8, [7 x i8] }>
%"class.mitsuba::Stream" = type { %"class.mitsuba::Object.base", i32 }
%"class.mitsuba::Object.base" = type <{ ptr, %"struct.std::__1::atomic" }>
%"struct.std::__1::atomic" = type { %"struct.std::__1::__atomic_base" }
%"struct.std::__1::__atomic_base" = type { %"struct.std::__1::__atomic_base.0" }
%"struct.std::__1::__atomic_base.0" = type { %"struct.std::__1::__cxx_atomic_impl" }
%"struct.std::__1::__cxx_atomic_impl" = type { %"struct.std::__1::__cxx_atomic_base_impl" }
%"struct.std::__1::__cxx_atomic_base_impl" = type { i32 }
%"struct.std::__1::__less" = type { i8 }

; Function Attrs: mustprogress nounwind uwtable
define linkonce_odr hidden noundef zeroext i1 @_ZNKSt3__16__lessIvvEclB8ne190000ImmEEbRKT_RKT0_(ptr noundef nonnull align 1 dereferenceable(1) %0, ptr noundef nonnull align 8 dereferenceable(8) %1, ptr noundef nonnull align 8 dereferenceable(8) %2) #2 comdat align 2 {
  %4 = alloca ptr, align 8
  %5 = alloca ptr, align 8
  %6 = alloca ptr, align 8
  store ptr %0, ptr %4, align 8
  store ptr %1, ptr %5, align 8
  store ptr %2, ptr %6, align 8
  %7 = load ptr, ptr %5, align 8
  %8 = load i64, ptr %7, align 8
  %9 = load ptr, ptr %6, align 8
  %10 = load i64, ptr %9, align 8
  %11 = icmp ult i64 %8, %10
  ret i1 %11
}

; Function Attrs: mustprogress nounwind uwtable
define linkonce_odr hidden noundef nonnull align 8 dereferenceable(8) ptr @_ZNSt3__13minB8ne190000ImNS_6__lessIvvEEEERKT_S5_S5_T0_(ptr noundef nonnull align 8 dereferenceable(8) %0, ptr noundef nonnull align 8 dereferenceable(8) %1) #2 comdat {
  %3 = alloca %"struct.std::__1::__less", align 1
  %4 = alloca ptr, align 8
  %5 = alloca ptr, align 8
  store ptr %0, ptr %4, align 8
  store ptr %1, ptr %5, align 8
  %6 = load ptr, ptr %5, align 8
  %7 = load ptr, ptr %4, align 8
  %8 = call noundef zeroext i1 @_ZNKSt3__16__lessIvvEclB8ne190000ImmEEbRKT_RKT0_(ptr noundef nonnull align 1 dereferenceable(1) %3, ptr noundef nonnull align 8 dereferenceable(8) %6, ptr noundef nonnull align 8 dereferenceable(8) %7)
  br i1 %8, label %9, label %11

9:                                                ; preds = %2
  %10 = load ptr, ptr %5, align 8
  br label %13

11:                                               ; preds = %2
  %12 = load ptr, ptr %4, align 8
  br label %13

13:                                               ; preds = %11, %9
  %14 = phi ptr [ %10, %9 ], [ %12, %11 ]
  ret ptr %14
}

; Function Attrs: mustprogress uwtable
define linkonce_odr hidden noundef nonnull align 8 dereferenceable(8) ptr @_ZNSt3__13minB8ne190000ImEERKT_S3_S3_(ptr noundef nonnull align 8 dereferenceable(8) %0, ptr noundef nonnull align 8 dereferenceable(8) %1) #0 comdat {
  %3 = alloca ptr, align 8
  %4 = alloca ptr, align 8
  store ptr %0, ptr %3, align 8
  store ptr %1, ptr %4, align 8
  %5 = load ptr, ptr %3, align 8
  %6 = load ptr, ptr %4, align 8
  %7 = call noundef nonnull align 8 dereferenceable(8) ptr @_ZNSt3__13minB8ne190000ImNS_6__lessIvvEEEERKT_S5_S5_T0_(ptr noundef nonnull align 8 dereferenceable(8) %5, ptr noundef nonnull align 8 dereferenceable(8) %6)
  ret ptr %7
}

; Function Attrs: mustprogress uwtable
define void @_ZN7mitsuba11DummyStream8truncateEm(ptr noundef nonnull align 8 dereferenceable(33) %0, i64 noundef %1) unnamed_addr #0 align 2 {
  %3 = alloca ptr, align 8
  %4 = alloca i64, align 8
  store ptr %0, ptr %3, align 8
  store i64 %1, ptr %4, align 8
  %5 = load ptr, ptr %3, align 8
  %6 = load i64, ptr %4, align 8
  %7 = getelementptr inbounds %"class.mitsuba::DummyStream", ptr %5, i32 0, i32 1
  store i64 %6, ptr %7, align 8
  %8 = getelementptr inbounds %"class.mitsuba::DummyStream", ptr %5, i32 0, i32 2
  %9 = call noundef nonnull align 8 dereferenceable(8) ptr @_ZNSt3__13minB8ne190000ImEERKT_S3_S3_(ptr noundef nonnull align 8 dereferenceable(8) %8, ptr noundef nonnull align 8 dereferenceable(8) %4)
  %10 = load i64, ptr %9, align 8
  %11 = getelementptr inbounds %"class.mitsuba::DummyStream", ptr %5, i32 0, i32 2
  store i64 %10, ptr %11, align 8
  ret void
}