; Function Attrs: mustprogress nofree norecurse nosync nounwind willreturn memory(argmem: readwrite) uwtable
define void @_ZN7mitsuba11DummyStream8truncateEm(ptr nocapture noundef nonnull align 8 dereferenceable(33) %0, i64 noundef %1) unnamed_addr #7 align 2 {
  %3 = getelementptr inbounds i8, ptr %0, i64 16
  store i64 %1, ptr %3, align 8
  %4 = getelementptr inbounds i8, ptr %0, i64 24
  %5 = load i64, ptr %4, align 8
  %.sroa.speculated = tail call i64 @llvm.umin.i64(i64 %5, i64 %1)
  store i64 %.sroa.speculated, ptr %4, align 8
  ret void
}